target datalayout = "e-m:e-p270:32:32-p271:32:32-p272:64:64-i64:64-i128:128-f80:128-n8:16:32:64-S128"
target triple = "x86_64-pc-linux-gnu"

@.str.62 = private unnamed_addr constant [15 x i8] c"preferences...\00", align 1
@.str.63 = private unnamed_addr constant [9 x i8] c"activate\00", align 1

; Function Attrs: nounwind uwtable
define void @set_preferences(ptr noundef %0, ptr noundef %1) #0 {
  %3 = alloca ptr, align 8
  %4 = alloca ptr, align 8
  %5 = alloca ptr, align 8
  store ptr %0, ptr %3, align 8, !tbaa !51
  store ptr %1, ptr %4, align 8, !tbaa !6
  call void @llvm.lifetime.start.p0(i64 8, ptr %5) #11
  %6 = call ptr @dcgettext(ptr noundef null, ptr noundef @.str.62, i32 noundef 5) #11
  %7 = call ptr @gtk_menu_item_new_with_label(ptr noundef %6)
  store ptr %7, ptr %5, align 8, !tbaa !108
  %8 = load ptr, ptr %5, align 8, !tbaa !108
  %9 = call ptr @g_type_check_instance_cast(ptr noundef %8, i64 noundef 80)
  %10 = load ptr, ptr %4, align 8, !tbaa !6
  %11 = call i64 @g_signal_connect_data(ptr noundef %9, ptr noundef @.str.63, ptr noundef @_menuitem_preferences, ptr noundef %10, ptr noundef null, i32 noundef 0)
  %12 = load ptr, ptr %3, align 8, !tbaa !51
  %13 = call i64 @gtk_menu_shell_get_type() #12
  %14 = call ptr @g_type_check_instance_cast(ptr noundef %12, i64 noundef %13)
  %15 = load ptr, ptr %5, align 8, !tbaa !108
  call void @gtk_menu_shell_append(ptr noundef %14, ptr noundef %15)
  call void @llvm.lifetime.end.p0(i64 8, ptr %5) #11
  ret void
}