; Function Attrs: nounwind uwtable
define void @set_preferences(ptr noundef %0, ptr noundef %1) local_unnamed_addr #1 {
  %3 = tail call ptr @dcgettext(ptr noundef null, ptr noundef nonnull @.str.62, i32 noundef 5) #16
  %4 = tail call ptr @gtk_menu_item_new_with_label(ptr noundef %3) #16
  %5 = tail call ptr @g_type_check_instance_cast(ptr noundef %4, i64 noundef 80) #16
  %6 = tail call i64 @g_signal_connect_data(ptr noundef %5, ptr noundef nonnull @.str.63, ptr noundef nonnull @_menuitem_preferences, ptr noundef %1, ptr noundef null, i32 noundef 0) #16
  %7 = tail call i64 @gtk_menu_shell_get_type() #17
  %8 = tail call ptr @g_type_check_instance_cast(ptr noundef %0, i64 noundef %7) #16
  tail call void @gtk_menu_shell_append(ptr noundef %8, ptr noundef %4) #16
  ret void
}